; Function Attrs: nounwind uwtable
define ptr @cs_ndone(ptr noundef %0, ptr noundef %1, ptr noundef %2, ptr noundef %3, i32 noundef %4) local_unnamed_addr #0 {
  %.not.i = icmp eq ptr %1, null
  br i1 %.not.i, label %cs_spfree.exit, label %6

6:                                                ; preds = %5
  %7 = getelementptr inbounds nuw i8, ptr %1, i64 16
  %8 = load ptr, ptr %7, align 8, !tbaa !14
  %9 = tail call ptr @cs_free(ptr noundef %8) #4
  %10 = getelementptr inbounds nuw i8, ptr %1, i64 24
  %11 = load ptr, ptr %10, align 8, !tbaa !15
  %12 = tail call ptr @cs_free(ptr noundef %11) #4
  %13 = getelementptr inbounds nuw i8, ptr %1, i64 32
  %14 = load ptr, ptr %13, align 8, !tbaa !16
  %15 = tail call ptr @cs_free(ptr noundef %14) #4
  %16 = tail call ptr @cs_free(ptr noundef nonnull %1) #4
  br label %cs_spfree.exit

cs_spfree.exit:                                   ; preds = %5, %6
  %17 = tail call ptr @cs_free(ptr noundef %2) #4
  %18 = tail call ptr @cs_free(ptr noundef %3) #4
  %.not = icmp eq i32 %4, 0
  br i1 %.not, label %19, label %21

19:                                               ; preds = %cs_spfree.exit
  %20 = tail call ptr @cs_nfree(ptr noundef %0)
  br label %21

21:                                               ; preds = %cs_spfree.exit, %19
  %22 = phi ptr [ %20, %19 ], [ %0, %cs_spfree.exit ]
  ret ptr %22
}